; Function Attrs: nofree norecurse nosync nounwind memory(none) uwtable
define hidden zeroext i1 @plpgsql_token_is_unreserved_keyword(i32 noundef %0) local_unnamed_addr #5 {
  br label %2

2:                                                ; preds = %2, %1
  %indvars.iv = phi i64 [ 0, %1 ], [ %indvars.iv.next, %2 ]
  %3 = getelementptr inbounds nuw [83 x i16], ptr @UnreservedPLKeywordTokens, i64 0, i64 %indvars.iv
  %4 = load i16, ptr %3, align 2
  %5 = zext i16 %4 to i32
  %6 = icmp eq i32 %0, %5
  %indvars.iv.next = add nuw nsw i64 %indvars.iv, 1
  %exitcond.not = icmp eq i64 %indvars.iv.next, 83
  %or.cond = select i1 %6, i1 true, i1 %exitcond.not
  br i1 %or.cond, label %7, label %2, !llvm.loop !5

7:                                                ; preds = %2
  ret i1 %6
}